target datalayout = "e-m:e-p270:32:32-p271:32:32-p272:64:64-i64:64-i128:128-f80:128-n8:16:32:64-S128"
target triple = "x86_64-pc-linux-gnu"

%class.symbol = type { ptr }
%"class.datalog::tr_infrastructure<datalog::relation_traits>::plugin_object" = type { ptr, i32, %class.symbol, ptr }
%"class.datalog::table_relation" = type { %"class.datalog::relation_base.base", %"class.datalog::scoped_rel" }
%"class.datalog::relation_base.base" = type { %"class.datalog::tr_infrastructure<datalog::relation_traits>::base_ancestor.base" }
%"class.datalog::tr_infrastructure<datalog::relation_traits>::base_ancestor.base" = type <{ ptr, ptr, %"class.datalog::relation_signature", i32 }>
%"class.datalog::relation_signature" = type { %"class.datalog::tr_infrastructure<datalog::relation_traits>::signature_base" }
%"class.datalog::tr_infrastructure<datalog::relation_traits>::signature_base" = type { %class.ptr_vector.23 }
%class.ptr_vector.23 = type { %class.vector.24 }
%class.vector.24 = type { ptr }
%"class.datalog::scoped_rel" = type { ptr }
%"class.datalog::tr_infrastructure<datalog::relation_traits>::base_ancestor" = type <{ ptr, ptr, %"class.datalog::relation_signature", i32, [4 x i8] }>
%"class.datalog::table_relation_plugin::tr_join_project_fn" = type { %"class.datalog::tr_infrastructure<datalog::relation_traits>::convenient_join_project_fn", %class.scoped_ptr }
%"class.datalog::tr_infrastructure<datalog::relation_traits>::convenient_join_project_fn" = type { %"class.datalog::tr_infrastructure<datalog::relation_traits>::join_fn", %"class.datalog::relation_signature", %class.svector.25, %class.svector.25, %class.svector.25 }
%"class.datalog::tr_infrastructure<datalog::relation_traits>::join_fn" = type { %"class.datalog::tr_infrastructure<datalog::relation_traits>::base_fn" }
%"class.datalog::tr_infrastructure<datalog::relation_traits>::base_fn" = type { ptr }
%class.svector.25 = type { %class.vector.26 }
%class.vector.26 = type { ptr }
%class.scoped_ptr = type { ptr }
%"class.datalog::relation_plugin" = type <{ %"class.datalog::tr_infrastructure<datalog::relation_traits>::plugin_object", i32, [4 x i8] }>

; Function Attrs: mustprogress uwtable
define linkonce_odr hidden void @_ZN6vectorIP4sortLb0EjE11free_memoryEv(ptr noundef nonnull align 8 dereferenceable(8) %0) #4 comdat align 2 {
  %2 = alloca ptr, align 8
  store ptr %0, ptr %2, align 8, !tbaa !72
  %3 = load ptr, ptr %2, align 8
  %4 = getelementptr inbounds nuw %class.vector.24, ptr %3, i32 0, i32 0
  %5 = load ptr, ptr %4, align 8, !tbaa !79
  %6 = getelementptr inbounds i32, ptr %5, i64 -2
  call void @_ZN6memory10deallocateEPv(ptr noundef %6)
  ret void
}

; Function Attrs: mustprogress uwtable
define linkonce_odr hidden void @_ZN6vectorIjLb0EjE11free_memoryEv(ptr noundef nonnull align 8 dereferenceable(8) %0) #4 comdat align 2 {
  %2 = alloca ptr, align 8
  store ptr %0, ptr %2, align 8, !tbaa !211
  %3 = load ptr, ptr %2, align 8
  %4 = getelementptr inbounds nuw %class.vector.26, ptr %3, i32 0, i32 0
  %5 = load ptr, ptr %4, align 8, !tbaa !215
  %6 = getelementptr inbounds i32, ptr %5, i64 -2
  call void @_ZN6memory10deallocateEPv(ptr noundef %6)
  ret void
}

; Function Attrs: mustprogress uwtable
define linkonce_odr hidden void @_ZN6vectorIP4sortLb0EjE7destroyEv(ptr noundef nonnull align 8 dereferenceable(8) %0) #4 comdat align 2 {
  %2 = alloca ptr, align 8
  store ptr %0, ptr %2, align 8, !tbaa !72
  %3 = load ptr, ptr %2, align 8
  %4 = getelementptr inbounds nuw %class.vector.24, ptr %3, i32 0, i32 0
  %5 = load ptr, ptr %4, align 8, !tbaa !79
  %6 = icmp ne ptr %5, null
  br i1 %6, label %7, label %8

7:                                                ; preds = %1
  call void @_ZN6vectorIP4sortLb0EjE11free_memoryEv(ptr noundef nonnull align 8 dereferenceable(8) %3)
  br label %8

8:                                                ; preds = %7, %1
  ret void
}

; Function Attrs: noinline noreturn nounwind uwtable
define linkonce_odr hidden void @__clang_call_terminate(ptr noundef %0) #11 comdat {
  %2 = call ptr @__cxa_begin_catch(ptr %0) #3
  call void @_ZSt9terminatev() #20
  unreachable
}

; Function Attrs: mustprogress uwtable
define linkonce_odr hidden void @_ZN6vectorIjLb0EjE7destroyEv(ptr noundef nonnull align 8 dereferenceable(8) %0) #4 comdat align 2 {
  %2 = alloca ptr, align 8
  store ptr %0, ptr %2, align 8, !tbaa !211
  %3 = load ptr, ptr %2, align 8
  %4 = getelementptr inbounds nuw %class.vector.26, ptr %3, i32 0, i32 0
  %5 = load ptr, ptr %4, align 8, !tbaa !215
  %6 = icmp ne ptr %5, null
  br i1 %6, label %7, label %8

7:                                                ; preds = %1
  call void @_ZN6vectorIjLb0EjE11free_memoryEv(ptr noundef nonnull align 8 dereferenceable(8) %3)
  br label %8

8:                                                ; preds = %7, %1
  ret void
}

; Function Attrs: mustprogress nounwind uwtable
define linkonce_odr hidden void @_ZN7datalog17tr_infrastructureINS_15relation_traitsEE7base_fnD2Ev(ptr noundef nonnull align 8 dereferenceable(8) %0) unnamed_addr #7 comdat align 2 {
  %2 = alloca ptr, align 8
  store ptr %0, ptr %2, align 8, !tbaa !213
  ret void
}

; Function Attrs: mustprogress nounwind uwtable
define linkonce_odr hidden void @_ZN6vectorIP4sortLb0EjED2Ev(ptr noundef nonnull align 8 dereferenceable(8) %0) unnamed_addr #7 comdat align 2 personality ptr @__gxx_personality_v0 {
  %2 = alloca ptr, align 8
  store ptr %0, ptr %2, align 8, !tbaa !72
  %3 = load ptr, ptr %2, align 8
  invoke void @_ZN6vectorIP4sortLb0EjE7destroyEv(ptr noundef nonnull align 8 dereferenceable(8) %3)
          to label %4 unwind label %5

4:                                                ; preds = %1
  ret void

5:                                                ; preds = %1
  %6 = landingpad { ptr, i32 }
          catch ptr null
  %7 = extractvalue { ptr, i32 } %6, 0
  call void @__clang_call_terminate(ptr %7) #20
  unreachable
}

; Function Attrs: mustprogress nounwind uwtable
define linkonce_odr hidden void @_ZN6vectorIjLb0EjED2Ev(ptr noundef nonnull align 8 dereferenceable(8) %0) unnamed_addr #7 comdat align 2 personality ptr @__gxx_personality_v0 {
  %2 = alloca ptr, align 8
  store ptr %0, ptr %2, align 8, !tbaa !211
  %3 = load ptr, ptr %2, align 8
  invoke void @_ZN6vectorIjLb0EjE7destroyEv(ptr noundef nonnull align 8 dereferenceable(8) %3)
          to label %4 unwind label %5

4:                                                ; preds = %1
  ret void

5:                                                ; preds = %1
  %6 = landingpad { ptr, i32 }
          catch ptr null
  %7 = extractvalue { ptr, i32 } %6, 0
  call void @__clang_call_terminate(ptr %7) #20
  unreachable
}

; Function Attrs: inlinehint mustprogress nounwind uwtable
define linkonce_odr hidden void @_ZN7datalog17tr_infrastructureINS_15relation_traitsEE26convenient_join_project_fnD2Ev(ptr noundef nonnull align 8 dereferenceable(40) %0) unnamed_addr #8 comdat align 2 {
  %2 = alloca ptr, align 8
  store ptr %0, ptr %2, align 8, !tbaa !203
  %3 = load ptr, ptr %2, align 8
  store ptr getelementptr inbounds inrange(-16, 24) ({ [5 x ptr] }, ptr @_ZTVN7datalog17tr_infrastructureINS_15relation_traitsEE26convenient_join_project_fnE, i32 0, i32 0, i32 2), ptr %3, align 8, !tbaa !34
  %4 = getelementptr inbounds nuw %"class.datalog::tr_infrastructure<datalog::relation_traits>::convenient_join_project_fn", ptr %3, i32 0, i32 4
  call void @_ZN6vectorIjLb0EjED2Ev(ptr noundef nonnull align 8 dereferenceable(8) %4) #3
  %5 = getelementptr inbounds nuw %"class.datalog::tr_infrastructure<datalog::relation_traits>::convenient_join_project_fn", ptr %3, i32 0, i32 3
  call void @_ZN6vectorIjLb0EjED2Ev(ptr noundef nonnull align 8 dereferenceable(8) %5) #3
  %6 = getelementptr inbounds nuw %"class.datalog::tr_infrastructure<datalog::relation_traits>::convenient_join_project_fn", ptr %3, i32 0, i32 2
  call void @_ZN6vectorIjLb0EjED2Ev(ptr noundef nonnull align 8 dereferenceable(8) %6) #3
  %7 = getelementptr inbounds nuw %"class.datalog::tr_infrastructure<datalog::relation_traits>::convenient_join_project_fn", ptr %3, i32 0, i32 1
  call void @_ZN6vectorIP4sortLb0EjED2Ev(ptr noundef nonnull align 8 dereferenceable(8) %7) #3
  call void @_ZN7datalog17tr_infrastructureINS_15relation_traitsEE7base_fnD2Ev(ptr noundef nonnull align 8 dereferenceable(8) %3) #3
  ret void
}

; Function Attrs: mustprogress nounwind uwtable
define linkonce_odr hidden void @_ZN10scoped_ptrIN7datalog17tr_infrastructureINS0_12table_traitsEE7join_fnEEC2EPS4_(ptr noundef nonnull align 8 dereferenceable(8) %0, ptr noundef %1) unnamed_addr #7 comdat align 2 {
  %3 = alloca ptr, align 8
  %4 = alloca ptr, align 8
  store ptr %0, ptr %3, align 8, !tbaa !205
  store ptr %1, ptr %4, align 8, !tbaa !62
  %5 = load ptr, ptr %3, align 8
  %6 = getelementptr inbounds nuw %class.scoped_ptr, ptr %5, i32 0, i32 0
  %7 = load ptr, ptr %4, align 8, !tbaa !62
  store ptr %7, ptr %6, align 8, !tbaa !207
  ret void
}

; Function Attrs: mustprogress nounwind uwtable
define linkonce_odr hidden noundef nonnull align 8 dereferenceable(36) ptr @_ZNK7datalog10scoped_relINS_10table_baseEEdeEv(ptr noundef nonnull align 8 dereferenceable(8) %0) #7 comdat align 2 {
  %2 = alloca ptr, align 8
  store ptr %0, ptr %2, align 8, !tbaa !184
  %3 = load ptr, ptr %2, align 8
  %4 = getelementptr inbounds nuw %"class.datalog::scoped_rel", ptr %3, i32 0, i32 0
  %5 = load ptr, ptr %4, align 8, !tbaa !186
  ret ptr %5
}

; Function Attrs: mustprogress nounwind uwtable
define linkonce_odr hidden noundef zeroext i1 @_ZNK7datalog15relation_plugin10from_tableEv(ptr noundef nonnull align 8 dereferenceable(36) %0) #7 comdat align 2 {
  %2 = alloca ptr, align 8
  store ptr %0, ptr %2, align 8, !tbaa !160
  %3 = load ptr, ptr %2, align 8
  %4 = getelementptr inbounds nuw %"class.datalog::relation_plugin", ptr %3, i32 0, i32 1
  %5 = load i32, ptr %4, align 8, !tbaa !202
  %6 = icmp eq i32 %5, 1
  ret i1 %6
}

; Function Attrs: mustprogress nounwind uwtable
define linkonce_odr hidden noundef nonnull align 8 dereferenceable(36) ptr @_ZNK7datalog17tr_infrastructureINS_15relation_traitsEE13base_ancestor10get_pluginEv(ptr noundef nonnull align 8 dereferenceable(28) %0) #7 comdat align 2 {
  %2 = alloca ptr, align 8
  store ptr %0, ptr %2, align 8, !tbaa !64
  %3 = load ptr, ptr %2, align 8
  %4 = getelementptr inbounds nuw %"class.datalog::tr_infrastructure<datalog::relation_traits>::base_ancestor", ptr %3, i32 0, i32 1
  %5 = load ptr, ptr %4, align 8, !tbaa !201
  ret ptr %5
}

; Function Attrs: mustprogress uwtable
define linkonce_odr hidden void @_ZN7datalog21table_relation_plugin18tr_join_project_fnC2ERKNS_18relation_signatureES4_jPKjS6_jS6_PNS_17tr_infrastructureINS_12table_traitsEE7join_fnE(ptr noundef nonnull align 8 dereferenceable(48) %0, ptr noundef nonnull align 8 dereferenceable(8) %1, ptr noundef nonnull align 8 dereferenceable(8) %2, i32 noundef %3, ptr noundef %4, ptr noundef %5, i32 noundef %6, ptr noundef %7, ptr noundef %8) unnamed_addr #4 comdat align 2 personality ptr @__gxx_personality_v0 {
  %10 = alloca ptr, align 8
  %11 = alloca ptr, align 8
  %12 = alloca ptr, align 8
  %13 = alloca i32, align 4
  %14 = alloca ptr, align 8
  %15 = alloca ptr, align 8
  %16 = alloca i32, align 4
  %17 = alloca ptr, align 8
  %18 = alloca ptr, align 8
  %19 = alloca ptr, align 8
  %20 = alloca i32, align 4
  store ptr %0, ptr %10, align 8, !tbaa !66
  store ptr %1, ptr %11, align 8, !tbaa !24
  store ptr %2, ptr %12, align 8, !tbaa !24
  store i32 %3, ptr %13, align 4, !tbaa !53
  store ptr %4, ptr %14, align 8, !tbaa !60
  store ptr %5, ptr %15, align 8, !tbaa !60
  store i32 %6, ptr %16, align 4, !tbaa !53
  store ptr %7, ptr %17, align 8, !tbaa !60
  store ptr %8, ptr %18, align 8, !tbaa !62
  %21 = load ptr, ptr %10, align 8
  %22 = load ptr, ptr %11, align 8, !tbaa !24
  %23 = load ptr, ptr %12, align 8, !tbaa !24
  %24 = load i32, ptr %13, align 4, !tbaa !53
  %25 = load ptr, ptr %14, align 8, !tbaa !60
  %26 = load ptr, ptr %15, align 8, !tbaa !60
  %27 = load i32, ptr %16, align 4, !tbaa !53
  %28 = load ptr, ptr %17, align 8, !tbaa !60
  call void @_ZN7datalog17tr_infrastructureINS_15relation_traitsEE26convenient_join_project_fnC2ERKNS_18relation_signatureES6_jPKjS8_jS8_(ptr noundef nonnull align 8 dereferenceable(40) %21, ptr noundef nonnull align 8 dereferenceable(8) %22, ptr noundef nonnull align 8 dereferenceable(8) %23, i32 noundef %24, ptr noundef %25, ptr noundef %26, i32 noundef %27, ptr noundef %28)
  store ptr getelementptr inbounds inrange(-16, 24) ({ [5 x ptr] }, ptr @_ZTVN7datalog21table_relation_plugin18tr_join_project_fnE, i32 0, i32 0, i32 2), ptr %21, align 8, !tbaa !34
  %29 = getelementptr inbounds nuw %"class.datalog::table_relation_plugin::tr_join_project_fn", ptr %21, i32 0, i32 1
  %30 = load ptr, ptr %18, align 8, !tbaa !62
  invoke void @_ZN10scoped_ptrIN7datalog17tr_infrastructureINS0_12table_traitsEE7join_fnEEC2EPS4_(ptr noundef nonnull align 8 dereferenceable(8) %29, ptr noundef %30)
          to label %31 unwind label %32

31:                                               ; preds = %9
  ret void

32:                                               ; preds = %9
  %33 = landingpad { ptr, i32 }
          cleanup
  %34 = extractvalue { ptr, i32 } %33, 0
  store ptr %34, ptr %19, align 8
  %35 = extractvalue { ptr, i32 } %33, 1
  store i32 %35, ptr %20, align 4
  call void @_ZN7datalog17tr_infrastructureINS_15relation_traitsEE26convenient_join_project_fnD2Ev(ptr noundef nonnull align 8 dereferenceable(40) %21) #3
  br label %36

36:                                               ; preds = %32
  %37 = load ptr, ptr %19, align 8
  %38 = load i32, ptr %20, align 4
  %39 = insertvalue { ptr, i32 } poison, ptr %37, 0
  %40 = insertvalue { ptr, i32 } %39, i32 %38, 1
  resume { ptr, i32 } %40
}

; Function Attrs: mustprogress nounwind uwtable
define linkonce_odr hidden noundef nonnull align 8 dereferenceable(8) ptr @_ZNK7datalog17tr_infrastructureINS_15relation_traitsEE13base_ancestor13get_signatureEv(ptr noundef nonnull align 8 dereferenceable(28) %0) #7 comdat align 2 {
  %2 = alloca ptr, align 8
  store ptr %0, ptr %2, align 8, !tbaa !64
  %3 = load ptr, ptr %2, align 8
  %4 = getelementptr inbounds nuw %"class.datalog::tr_infrastructure<datalog::relation_traits>::base_ancestor", ptr %3, i32 0, i32 2
  ret ptr %4
}

; Function Attrs: mustprogress uwtable
define linkonce_odr hidden noundef nonnull align 8 dereferenceable(36) ptr @_ZNK7datalog14table_relation9get_tableEv(ptr noundef nonnull align 8 dereferenceable(40) %0) #4 comdat align 2 {
  %2 = alloca ptr, align 8
  store ptr %0, ptr %2, align 8, !tbaa !49
  %3 = load ptr, ptr %2, align 8
  %4 = getelementptr inbounds nuw %"class.datalog::table_relation", ptr %3, i32 0, i32 1
  %5 = call noundef nonnull align 8 dereferenceable(36) ptr @_ZNK7datalog10scoped_relINS_10table_baseEEdeEv(ptr noundef nonnull align 8 dereferenceable(8) %4)
  ret ptr %5
}

; Function Attrs: mustprogress nounwind uwtable
define linkonce_odr hidden noundef nonnull align 8 dereferenceable(200) ptr @_ZNK7datalog17tr_infrastructureINS_15relation_traitsEE13plugin_object11get_managerEv(ptr noundef nonnull align 8 dereferenceable(32) %0) #7 comdat align 2 {
  %2 = alloca ptr, align 8
  store ptr %0, ptr %2, align 8, !tbaa !44
  %3 = load ptr, ptr %2, align 8
  %4 = getelementptr inbounds nuw %"class.datalog::tr_infrastructure<datalog::relation_traits>::plugin_object", ptr %3, i32 0, i32 3
  %5 = load ptr, ptr %4, align 8, !tbaa !46
  ret ptr %5
}

; Function Attrs: mustprogress uwtable
define linkonce_odr hidden noundef zeroext i1 @_ZNK7datalog13relation_base10from_tableEv(ptr noundef nonnull align 8 dereferenceable(28) %0) #4 comdat align 2 {
  %2 = alloca ptr, align 8
  store ptr %0, ptr %2, align 8, !tbaa !58
  %3 = load ptr, ptr %2, align 8
  %4 = call noundef nonnull align 8 dereferenceable(36) ptr @_ZNK7datalog17tr_infrastructureINS_15relation_traitsEE13base_ancestor10get_pluginEv(ptr noundef nonnull align 8 dereferenceable(28) %3)
  %5 = call noundef zeroext i1 @_ZNK7datalog15relation_plugin10from_tableEv(ptr noundef nonnull align 8 dereferenceable(36) %4)
  ret i1 %5
}

; Function Attrs: mustprogress uwtable
define hidden noundef ptr @_ZN7datalog21table_relation_plugin18mk_join_project_fnERKNS_13relation_baseES3_jPKjS5_jS5_(ptr noundef nonnull align 8 dereferenceable(48) %0, ptr noundef nonnull align 8 dereferenceable(28) %1, ptr noundef nonnull align 8 dereferenceable(28) %2, i32 noundef %3, ptr noundef %4, ptr noundef %5, i32 noundef %6, ptr noundef %7) unnamed_addr #4 align 2 {
  %9 = alloca ptr, align 8
  %10 = alloca ptr, align 8
  %11 = alloca ptr, align 8
  %12 = alloca ptr, align 8
  %13 = alloca i32, align 4
  %14 = alloca ptr, align 8
  %15 = alloca ptr, align 8
  %16 = alloca i32, align 4
  %17 = alloca ptr, align 8
  %18 = alloca ptr, align 8
  %19 = alloca ptr, align 8
  %20 = alloca ptr, align 8
  store ptr %0, ptr %10, align 8, !tbaa !22
  store ptr %1, ptr %11, align 8, !tbaa !58
  store ptr %2, ptr %12, align 8, !tbaa !58
  store i32 %3, ptr %13, align 4, !tbaa !53
  store ptr %4, ptr %14, align 8, !tbaa !60
  store ptr %5, ptr %15, align 8, !tbaa !60
  store i32 %6, ptr %16, align 4, !tbaa !53
  store ptr %7, ptr %17, align 8, !tbaa !60
  %21 = load ptr, ptr %10, align 8
  %22 = load ptr, ptr %11, align 8, !tbaa !58
  %23 = call noundef zeroext i1 @_ZNK7datalog13relation_base10from_tableEv(ptr noundef nonnull align 8 dereferenceable(28) %22)
  br i1 %23, label %24, label %27

24:                                               ; preds = %8
  %25 = load ptr, ptr %12, align 8, !tbaa !58
  %26 = call noundef zeroext i1 @_ZNK7datalog13relation_base10from_tableEv(ptr noundef nonnull align 8 dereferenceable(28) %25)
  br i1 %26, label %28, label %27

27:                                               ; preds = %24, %8
  store ptr null, ptr %9, align 8
  br label %53

28:                                               ; preds = %24
  call void @llvm.lifetime.start.p0(i64 8, ptr %18) #3
  %29 = load ptr, ptr %11, align 8, !tbaa !58
  store ptr %29, ptr %18, align 8, !tbaa !49
  call void @llvm.lifetime.start.p0(i64 8, ptr %19) #3
  %30 = load ptr, ptr %12, align 8, !tbaa !58
  store ptr %30, ptr %19, align 8, !tbaa !49
  call void @llvm.lifetime.start.p0(i64 8, ptr %20) #3
  %31 = call noundef nonnull align 8 dereferenceable(200) ptr @_ZNK7datalog17tr_infrastructureINS_15relation_traitsEE13plugin_object11get_managerEv(ptr noundef nonnull align 8 dereferenceable(32) %21)
  %32 = load ptr, ptr %18, align 8, !tbaa !49
  %33 = call noundef nonnull align 8 dereferenceable(36) ptr @_ZNK7datalog14table_relation9get_tableEv(ptr noundef nonnull align 8 dereferenceable(40) %32)
  %34 = load ptr, ptr %19, align 8, !tbaa !49
  %35 = call noundef nonnull align 8 dereferenceable(36) ptr @_ZNK7datalog14table_relation9get_tableEv(ptr noundef nonnull align 8 dereferenceable(40) %34)
  %36 = load i32, ptr %13, align 4, !tbaa !53
  %37 = load ptr, ptr %14, align 8, !tbaa !60
  %38 = load ptr, ptr %15, align 8, !tbaa !60
  %39 = load i32, ptr %16, align 4, !tbaa !53
  %40 = load ptr, ptr %17, align 8, !tbaa !60
  %41 = call noundef ptr @_ZN7datalog16relation_manager18mk_join_project_fnERKNS_10table_baseES3_jPKjS5_jS5_(ptr noundef nonnull align 8 dereferenceable(200) %31, ptr noundef nonnull align 8 dereferenceable(36) %33, ptr noundef nonnull align 8 dereferenceable(36) %35, i32 noundef %36, ptr noundef %37, ptr noundef %38, i32 noundef %39, ptr noundef %40)
  store ptr %41, ptr %20, align 8, !tbaa !62
  %42 = call noalias noundef ptr @_ZN6memory8allocateEm(i64 noundef 48)
  %43 = load ptr, ptr %11, align 8, !tbaa !58
  %44 = call noundef nonnull align 8 dereferenceable(8) ptr @_ZNK7datalog17tr_infrastructureINS_15relation_traitsEE13base_ancestor13get_signatureEv(ptr noundef nonnull align 8 dereferenceable(28) %43)
  %45 = load ptr, ptr %12, align 8, !tbaa !58
  %46 = call noundef nonnull align 8 dereferenceable(8) ptr @_ZNK7datalog17tr_infrastructureINS_15relation_traitsEE13base_ancestor13get_signatureEv(ptr noundef nonnull align 8 dereferenceable(28) %45)
  %47 = load i32, ptr %13, align 4, !tbaa !53
  %48 = load ptr, ptr %14, align 8, !tbaa !60
  %49 = load ptr, ptr %15, align 8, !tbaa !60
  %50 = load i32, ptr %16, align 4, !tbaa !53
  %51 = load ptr, ptr %17, align 8, !tbaa !60
  %52 = load ptr, ptr %20, align 8, !tbaa !62
  call void @_ZN7datalog21table_relation_plugin18tr_join_project_fnC2ERKNS_18relation_signatureES4_jPKjS6_jS6_PNS_17tr_infrastructureINS_12table_traitsEE7join_fnE(ptr noundef nonnull align 8 dereferenceable(48) %42, ptr noundef nonnull align 8 dereferenceable(8) %44, ptr noundef nonnull align 8 dereferenceable(8) %46, i32 noundef %47, ptr noundef %48, ptr noundef %49, i32 noundef %50, ptr noundef %51, ptr noundef %52)
  store ptr %42, ptr %9, align 8
  call void @llvm.lifetime.end.p0(i64 8, ptr %20) #3
  call void @llvm.lifetime.end.p0(i64 8, ptr %19) #3
  call void @llvm.lifetime.end.p0(i64 8, ptr %18) #3
  br label %53

53:                                               ; preds = %28, %27
  %54 = load ptr, ptr %9, align 8
  ret ptr %54
}