; Function Attrs: mustprogress uwtable
define hidden noundef ptr @_ZN7datalog21table_relation_plugin18mk_join_project_fnERKNS_13relation_baseES3_jPKjS5_jS5_(ptr noundef nonnull readonly align 8 captures(none) dereferenceable(48) %0, ptr noundef nonnull align 8 dereferenceable(28) %1, ptr noundef nonnull align 8 dereferenceable(28) %2, i32 noundef %3, ptr noundef %4, ptr noundef %5, i32 noundef %6, ptr noundef %7) unnamed_addr #3 align 2 personality ptr @__gxx_personality_v0 {
  %9 = getelementptr inbounds nuw i8, ptr %1, i64 8
  %10 = load ptr, ptr %9, align 8, !tbaa !54
  %11 = getelementptr inbounds nuw i8, ptr %10, i64 32
  %12 = load i32, ptr %11, align 8, !tbaa !55
  %13 = icmp eq i32 %12, 1
  br i1 %13, label %14, label %32

14:                                               ; preds = %8
  %15 = getelementptr inbounds nuw i8, ptr %2, i64 8
  %16 = load ptr, ptr %15, align 8, !tbaa !54
  %17 = getelementptr inbounds nuw i8, ptr %16, i64 32
  %18 = load i32, ptr %17, align 8, !tbaa !55
  %19 = icmp eq i32 %18, 1
  br i1 %19, label %20, label %32

20:                                               ; preds = %14
  %21 = getelementptr inbounds nuw i8, ptr %0, i64 24
  %22 = load ptr, ptr %21, align 8, !tbaa !23
  %23 = getelementptr inbounds nuw i8, ptr %1, i64 32
  %24 = load ptr, ptr %23, align 8, !tbaa !47
  %25 = getelementptr inbounds nuw i8, ptr %2, i64 32
  %26 = load ptr, ptr %25, align 8, !tbaa !47
  %27 = tail call noundef ptr @_ZN7datalog16relation_manager18mk_join_project_fnERKNS_10table_baseES3_jPKjS5_jS5_(ptr noundef nonnull align 8 dereferenceable(200) %22, ptr noundef nonnull align 8 dereferenceable(36) %24, ptr noundef nonnull align 8 dereferenceable(36) %26, i32 noundef %3, ptr noundef %4, ptr noundef %5, i32 noundef %6, ptr noundef %7)
  %28 = tail call noalias noundef ptr @_ZN6memory8allocateEm(i64 noundef 48)
  %29 = getelementptr inbounds nuw i8, ptr %1, i64 16
  %30 = getelementptr inbounds nuw i8, ptr %2, i64 16
  tail call void @_ZN7datalog17tr_infrastructureINS_15relation_traitsEE26convenient_join_project_fnC2ERKNS_18relation_signatureES6_jPKjS8_jS8_(ptr noundef nonnull align 8 dereferenceable(48) %28, ptr noundef nonnull align 8 dereferenceable(8) %29, ptr noundef nonnull align 8 dereferenceable(8) %30, i32 noundef %3, ptr noundef %4, ptr noundef %5, i32 noundef %6, ptr noundef %7)
  store ptr getelementptr inbounds nuw inrange(-16, 24) (i8, ptr @_ZTVN7datalog21table_relation_plugin18tr_join_project_fnE, i64 16), ptr %28, align 8, !tbaa !32
  %31 = getelementptr inbounds nuw i8, ptr %28, i64 40
  store ptr %27, ptr %31, align 8, !tbaa !56
  br label %32

32:                                               ; preds = %8, %14, %20
  %.0 = phi ptr [ %28, %20 ], [ null, %14 ], [ null, %8 ]
  ret ptr %.0
}